target datalayout = "e-m:e-p270:32:32-p271:32:32-p272:64:64-i64:64-i128:128-f80:128-n8:16:32:64-S128"
target triple = "x86_64-pc-linux-gnu"

%class.svector = type { %class.vector.0 }
%class.vector.0 = type { ptr }
%"class.datalog::table_signature" = type <{ %"class.datalog::tr_infrastructure<datalog::table_traits>::signature_base", i32, [4 x i8] }>
%"class.datalog::tr_infrastructure<datalog::table_traits>::signature_base" = type { %class.svector }

; Function Attrs: mustprogress nounwind uwtable
define linkonce_odr hidden noundef i32 @_ZNK6vectorImLb0EjE4sizeEv(ptr noundef nonnull align 8 dereferenceable(8) %0) #6 comdat align 2 {
  %2 = alloca i32, align 4
  %3 = alloca ptr, align 8
  store ptr %0, ptr %3, align 8, !tbaa !372
  %4 = load ptr, ptr %3, align 8
  %5 = getelementptr inbounds nuw %class.vector.0, ptr %4, i32 0, i32 0
  %6 = load ptr, ptr %5, align 8, !tbaa !374
  %7 = icmp eq ptr %6, null
  br i1 %7, label %8, label %9

8:                                                ; preds = %1
  store i32 0, ptr %2, align 4
  br label %14

9:                                                ; preds = %1
  %10 = getelementptr inbounds nuw %class.vector.0, ptr %4, i32 0, i32 0
  %11 = load ptr, ptr %10, align 8, !tbaa !374
  %12 = getelementptr inbounds i32, ptr %11, i64 -1
  %13 = load i32, ptr %12, align 4, !tbaa !29
  store i32 %13, ptr %2, align 4
  br label %14

14:                                               ; preds = %9, %8
  %15 = load i32, ptr %2, align 4
  ret i32 %15
}

; Function Attrs: mustprogress uwtable
define linkonce_odr hidden noundef i32 @_ZNK7datalog15table_signature16first_functionalEv(ptr noundef nonnull align 8 dereferenceable(12) %0) #4 comdat align 2 {
  %2 = alloca ptr, align 8
  store ptr %0, ptr %2, align 8, !tbaa !365
  %3 = load ptr, ptr %2, align 8
  %4 = call noundef i32 @_ZNK6vectorImLb0EjE4sizeEv(ptr noundef nonnull align 8 dereferenceable(8) %3)
  %5 = getelementptr inbounds nuw %"class.datalog::table_signature", ptr %3, i32 0, i32 1
  %6 = load i32, ptr %5, align 8, !tbaa !375
  %7 = sub i32 %4, %6
  ret i32 %7
}

; Function Attrs: mustprogress nounwind uwtable
define linkonce_odr hidden void @_ZN7datalog15table_signature22set_functional_columnsEj(ptr noundef nonnull align 8 dereferenceable(12) %0, i32 noundef %1) #6 comdat align 2 {
  %3 = alloca ptr, align 8
  %4 = alloca i32, align 4
  store ptr %0, ptr %3, align 8, !tbaa !365
  store i32 %1, ptr %4, align 4, !tbaa !29
  %5 = load ptr, ptr %3, align 8
  %6 = load i32, ptr %4, align 4, !tbaa !29
  %7 = getelementptr inbounds nuw %"class.datalog::table_signature", ptr %5, i32 0, i32 1
  store i32 %6, ptr %7, align 8, !tbaa !375
  ret void
}

; Function Attrs: mustprogress nounwind uwtable
define linkonce_odr hidden noundef i32 @_ZNK7datalog15table_signature18functional_columnsEv(ptr noundef nonnull align 8 dereferenceable(12) %0) #6 comdat align 2 {
  %2 = alloca ptr, align 8
  store ptr %0, ptr %2, align 8, !tbaa !365
  %3 = load ptr, ptr %2, align 8
  %4 = getelementptr inbounds nuw %"class.datalog::table_signature", ptr %3, i32 0, i32 1
  %5 = load i32, ptr %4, align 8, !tbaa !375
  ret i32 %5
}

; Function Attrs: mustprogress uwtable
define hidden void @_ZN7datalog15table_signature12from_projectERKS0_jPKjRS0_(ptr noundef nonnull align 8 dereferenceable(12) %0, i32 noundef %1, ptr noundef %2, ptr noundef nonnull align 8 dereferenceable(12) %3) #4 align 2 {
  %5 = alloca ptr, align 8
  %6 = alloca i32, align 4
  %7 = alloca ptr, align 8
  %8 = alloca ptr, align 8
  %9 = alloca i32, align 4
  %10 = alloca i32, align 4
  %11 = alloca i32, align 4
  store ptr %0, ptr %5, align 8, !tbaa !365
  store i32 %1, ptr %6, align 4, !tbaa !29
  store ptr %2, ptr %7, align 8, !tbaa !367
  store ptr %3, ptr %8, align 8, !tbaa !365
  %12 = load ptr, ptr %5, align 8, !tbaa !365
  %13 = load i32, ptr %6, align 4, !tbaa !29
  %14 = load ptr, ptr %7, align 8, !tbaa !367
  %15 = load ptr, ptr %8, align 8, !tbaa !365
  call void @_ZN7datalog17tr_infrastructureINS_12table_traitsEE14signature_base12from_projectERKNS_15table_signatureEjPKjRS4_(ptr noundef nonnull align 8 dereferenceable(12) %12, i32 noundef %13, ptr noundef %14, ptr noundef nonnull align 8 dereferenceable(12) %15)
  call void @llvm.lifetime.start.p0(i64 4, ptr %9) #3
  %16 = load ptr, ptr %5, align 8, !tbaa !365
  %17 = call noundef i32 @_ZNK7datalog15table_signature18functional_columnsEv(ptr noundef nonnull align 8 dereferenceable(12) %16)
  store i32 %17, ptr %9, align 4, !tbaa !29
  %18 = load ptr, ptr %7, align 8, !tbaa !367
  %19 = icmp eq ptr %18, null
  br i1 %19, label %20, label %23

20:                                               ; preds = %4
  %21 = load ptr, ptr %8, align 8, !tbaa !365
  %22 = load i32, ptr %9, align 4, !tbaa !29
  call void @_ZN7datalog15table_signature22set_functional_columnsEj(ptr noundef nonnull align 8 dereferenceable(12) %21, i32 noundef %22)
  store i32 1, ptr %10, align 4
  br label %39

23:                                               ; preds = %4
  call void @llvm.lifetime.start.p0(i64 4, ptr %11) #3
  %24 = load ptr, ptr %5, align 8, !tbaa !365
  %25 = call noundef i32 @_ZNK7datalog15table_signature16first_functionalEv(ptr noundef nonnull align 8 dereferenceable(12) %24)
  store i32 %25, ptr %11, align 4, !tbaa !29
  %26 = load ptr, ptr %7, align 8, !tbaa !367
  %27 = getelementptr inbounds i32, ptr %26, i64 0
  %28 = load i32, ptr %27, align 4, !tbaa !29
  %29 = load i32, ptr %11, align 4, !tbaa !29
  %30 = icmp ult i32 %28, %29
  br i1 %30, label %31, label %33

31:                                               ; preds = %23
  %32 = load ptr, ptr %8, align 8, !tbaa !365
  call void @_ZN7datalog15table_signature22set_functional_columnsEj(ptr noundef nonnull align 8 dereferenceable(12) %32, i32 noundef 0)
  br label %38

33:                                               ; preds = %23
  %34 = load ptr, ptr %8, align 8, !tbaa !365
  %35 = load i32, ptr %9, align 4, !tbaa !29
  %36 = load i32, ptr %6, align 4, !tbaa !29
  %37 = sub i32 %35, %36
  call void @_ZN7datalog15table_signature22set_functional_columnsEj(ptr noundef nonnull align 8 dereferenceable(12) %34, i32 noundef %37)
  br label %38

38:                                               ; preds = %33, %31
  call void @llvm.lifetime.end.p0(i64 4, ptr %11) #3
  store i32 0, ptr %10, align 4
  br label %39

39:                                               ; preds = %38, %20
  call void @llvm.lifetime.end.p0(i64 4, ptr %9) #3
  %40 = load i32, ptr %10, align 4
  switch i32 %40, label %42 [
    i32 0, label %41
    i32 1, label %41
  ]

41:                                               ; preds = %39, %39
  ret void

42:                                               ; preds = %39
  unreachable
}