; Function Attrs: mustprogress uwtable
define hidden void @_ZN7datalog15table_signature12from_projectERKS0_jPKjRS0_(ptr noundef nonnull align 8 dereferenceable(12) %0, i32 noundef %1, ptr noundef %2, ptr noundef nonnull align 8 dereferenceable(12) %3) local_unnamed_addr #3 align 2 {
  tail call void @_ZN7datalog17tr_infrastructureINS_12table_traitsEE14signature_base12from_projectERKNS_15table_signatureEjPKjRS4_(ptr noundef nonnull align 8 dereferenceable(12) %0, i32 noundef %1, ptr noundef %2, ptr noundef nonnull align 8 dereferenceable(12) %3)
  %5 = getelementptr inbounds nuw i8, ptr %0, i64 8
  %6 = load i32, ptr %5, align 8, !tbaa !329
  %7 = icmp eq ptr %2, null
  br i1 %7, label %18, label %8

8:                                                ; preds = %4
  %9 = load ptr, ptr %0, align 8, !tbaa !328
  %10 = icmp eq ptr %9, null
  br i1 %10, label %_ZNK7datalog15table_signature16first_functionalEv.exit, label %11

11:                                               ; preds = %8
  %12 = getelementptr inbounds i8, ptr %9, i64 -4
  %13 = load i32, ptr %12, align 4, !tbaa !12
  br label %_ZNK7datalog15table_signature16first_functionalEv.exit

_ZNK7datalog15table_signature16first_functionalEv.exit: ; preds = %8, %11
  %.0.i.i = phi i32 [ %13, %11 ], [ 0, %8 ]
  %14 = sub i32 %.0.i.i, %6
  %15 = load i32, ptr %2, align 4, !tbaa !12
  %16 = icmp ult i32 %15, %14
  %17 = sub i32 %6, %1
  %spec.select = select i1 %16, i32 0, i32 %17
  br label %18

18:                                               ; preds = %_ZNK7datalog15table_signature16first_functionalEv.exit, %4
  %.sink = phi i32 [ %6, %4 ], [ %spec.select, %_ZNK7datalog15table_signature16first_functionalEv.exit ]
  %19 = getelementptr inbounds nuw i8, ptr %3, i64 8
  store i32 %.sink, ptr %19, align 8, !tbaa !329
  ret void
}